target datalayout = "e-m:e-p270:32:32-p271:32:32-p272:64:64-i64:64-i128:128-f80:128-n8:16:32:64-S128"
target triple = "x86_64-pc-linux-gnu"

@.str.649 = private unnamed_addr constant [12 x i8] c"No callback\00", align 1
@proto_register_cbcp.ett = internal global [8 x ptr] [ptr @ett_cbcp, ptr @ett_cbcp_options, ptr @ett_cbcp_callback_opt, ptr @ett_cbcp_callback_opt_addr, ptr @ett_cbcp_no_callback, ptr @ett_cbcp_callback_user, ptr @ett_cbcp_callback_admin, ptr @ett_cbcp_callback_list], align 16
@.str.653 = private unnamed_addr constant [30 x i8] c"PPP Callback Control Protocol\00", align 1
@.str.654 = private unnamed_addr constant [9 x i8] c"PPP CBCP\00", align 1
@.str.655 = private unnamed_addr constant [5 x i8] c"cbcp\00", align 1
@proto_cbcp = internal global i32 0, align 4
@cbcp_handle = internal global ptr null, align 8
@.str.656 = private unnamed_addr constant [12 x i8] c"cbcp.option\00", align 1
@.str.657 = private unnamed_addr constant [17 x i8] c"PPP CBCP Options\00", align 1
@cbcp_option_table = internal global ptr null, align 8
@.str.658 = private unnamed_addr constant [21 x i8] c"cbcp.opt.no_callback\00", align 1
@proto_cbcp_option_no_callback = internal global i32 0, align 4
@.str.659 = private unnamed_addr constant [36 x i8] c"Callback to a user-specified number\00", align 1
@.str.660 = private unnamed_addr constant [23 x i8] c"cbcp.opt.callback_user\00", align 1
@proto_cbcp_option_callback_user = internal global i32 0, align 4
@.str.661 = private unnamed_addr constant [54 x i8] c"Callback to a pre-specified or admin-specified number\00", align 1
@.str.662 = private unnamed_addr constant [24 x i8] c"cbcp.opt.callback_admin\00", align 1
@proto_cbcp_option_callback_admin = internal global i32 0, align 4
@.str.663 = private unnamed_addr constant [37 x i8] c"Callback to any of a list of numbers\00", align 1
@.str.664 = private unnamed_addr constant [23 x i8] c"cbcp.opt.callback_list\00", align 1
@proto_cbcp_option_callback_list = internal global i32 0, align 4

; Function Attrs: null_pointer_is_valid sspstrong uwtable
define hidden void @proto_register_cbcp() #1 {
  %1 = alloca ptr, align 8
  call void @llvm.lifetime.start.p0(i64 8, ptr %1) #6
  %2 = call i32 @proto_register_protocol(ptr noundef @.str.653, ptr noundef @.str.654, ptr noundef @.str.655)
  store i32 %2, ptr @proto_cbcp, align 4
  %3 = load i32, ptr @proto_cbcp, align 4
  %4 = call ptr @register_dissector(ptr noundef @.str.655, ptr noundef @dissect_cbcp, i32 noundef %3)
  store ptr %4, ptr @cbcp_handle, align 8
  %5 = load i32, ptr @proto_cbcp, align 4
  call void @proto_register_field_array(i32 noundef %5, ptr noundef @proto_register_cbcp.hf, i32 noundef 6)
  call void @proto_register_subtree_array(ptr noundef @proto_register_cbcp.ett, i32 noundef 8)
  %6 = load i32, ptr @proto_cbcp, align 4
  %7 = call ptr @expert_register_protocol(i32 noundef %6)
  store ptr %7, ptr %1, align 8
  %8 = load ptr, ptr %1, align 8
  call void @expert_register_field_array(ptr noundef %8, ptr noundef @proto_register_cbcp.ei, i32 noundef 1)
  %9 = load i32, ptr @proto_cbcp, align 4
  %10 = call ptr @register_dissector_table(ptr noundef @.str.656, ptr noundef @.str.657, i32 noundef %9, i32 noundef 4, i32 noundef 1)
  store ptr %10, ptr @cbcp_option_table, align 8
  %11 = load i32, ptr @proto_cbcp, align 4
  %12 = call i32 @proto_register_protocol_in_name_only(ptr noundef @.str.649, ptr noundef @.str.649, ptr noundef @.str.658, i32 noundef %11, i32 noundef 30)
  store i32 %12, ptr @proto_cbcp_option_no_callback, align 4
  %13 = load i32, ptr @proto_cbcp, align 4
  %14 = call i32 @proto_register_protocol_in_name_only(ptr noundef @.str.659, ptr noundef @.str.659, ptr noundef @.str.660, i32 noundef %13, i32 noundef 30)
  store i32 %14, ptr @proto_cbcp_option_callback_user, align 4
  %15 = load i32, ptr @proto_cbcp, align 4
  %16 = call i32 @proto_register_protocol_in_name_only(ptr noundef @.str.661, ptr noundef @.str.661, ptr noundef @.str.662, i32 noundef %15, i32 noundef 30)
  store i32 %16, ptr @proto_cbcp_option_callback_admin, align 4
  %17 = load i32, ptr @proto_cbcp, align 4
  %18 = call i32 @proto_register_protocol_in_name_only(ptr noundef @.str.663, ptr noundef @.str.663, ptr noundef @.str.664, i32 noundef %17, i32 noundef 30)
  store i32 %18, ptr @proto_cbcp_option_callback_list, align 4
  call void @llvm.lifetime.end.p0(i64 8, ptr %1) #6
  ret void
}