; Function Attrs: null_pointer_is_valid sspstrong uwtable
define hidden void @proto_register_cbcp() local_unnamed_addr #1 {
  %1 = tail call i32 @proto_register_protocol(ptr noundef nonnull @.str.653, ptr noundef nonnull @.str.654, ptr noundef nonnull @.str.655)
  store i32 %1, ptr @proto_cbcp, align 4
  %2 = tail call ptr @register_dissector(ptr noundef nonnull @.str.655, ptr noundef nonnull @dissect_cbcp, i32 noundef %1)
  store ptr %2, ptr @cbcp_handle, align 8
  %3 = load i32, ptr @proto_cbcp, align 4
  tail call void @proto_register_field_array(i32 noundef %3, ptr noundef nonnull @proto_register_cbcp.hf, i32 noundef 6)
  tail call void @proto_register_subtree_array(ptr noundef nonnull @proto_register_cbcp.ett, i32 noundef 8)
  %4 = load i32, ptr @proto_cbcp, align 4
  %5 = tail call ptr @expert_register_protocol(i32 noundef %4)
  tail call void @expert_register_field_array(ptr noundef %5, ptr noundef nonnull @proto_register_cbcp.ei, i32 noundef 1)
  %6 = load i32, ptr @proto_cbcp, align 4
  %7 = tail call ptr @register_dissector_table(ptr noundef nonnull @.str.656, ptr noundef nonnull @.str.657, i32 noundef %6, i32 noundef 4, i32 noundef 1)
  store ptr %7, ptr @cbcp_option_table, align 8
  %8 = load i32, ptr @proto_cbcp, align 4
  %9 = tail call i32 @proto_register_protocol_in_name_only(ptr noundef nonnull @.str.649, ptr noundef nonnull @.str.649, ptr noundef nonnull @.str.658, i32 noundef %8, i32 noundef 30)
  store i32 %9, ptr @proto_cbcp_option_no_callback, align 4
  %10 = load i32, ptr @proto_cbcp, align 4
  %11 = tail call i32 @proto_register_protocol_in_name_only(ptr noundef nonnull @.str.659, ptr noundef nonnull @.str.659, ptr noundef nonnull @.str.660, i32 noundef %10, i32 noundef 30)
  store i32 %11, ptr @proto_cbcp_option_callback_user, align 4
  %12 = load i32, ptr @proto_cbcp, align 4
  %13 = tail call i32 @proto_register_protocol_in_name_only(ptr noundef nonnull @.str.661, ptr noundef nonnull @.str.661, ptr noundef nonnull @.str.662, i32 noundef %12, i32 noundef 30)
  store i32 %13, ptr @proto_cbcp_option_callback_admin, align 4
  %14 = load i32, ptr @proto_cbcp, align 4
  %15 = tail call i32 @proto_register_protocol_in_name_only(ptr noundef nonnull @.str.663, ptr noundef nonnull @.str.663, ptr noundef nonnull @.str.664, i32 noundef %14, i32 noundef 30)
  store i32 %15, ptr @proto_cbcp_option_callback_list, align 4
  ret void
}